target datalayout = "e-m:e-p270:32:32-p271:32:32-p272:64:64-i64:64-i128:128-f80:128-n8:16:32:64-S128"
target triple = "x86_64-pc-linux-gnu"

%class.LIR_Opr = type { i64 }
%class.LIR_Op = type { ptr, %class.LIR_Opr, i16, i16, ptr, i32, i32, ptr }
%class.LIR_Op2 = type <{ %class.LIR_Op, i32, [4 x i8], %class.LIR_Opr, %class.LIR_Opr, i8, [7 x i8], %class.LIR_Opr, %class.LIR_Opr, %class.LIR_Opr, %class.LIR_Opr, %class.LIR_Opr, i32, [4 x i8] }>

@g_assert_poison = external global ptr, align 8
@.str = private unnamed_addr constant [32 x i8] c"src/hotspot/share/c1/c1_LIR.cpp\00", align 1

; Function Attrs: mustprogress nounwind uwtable
define linkonce_odr hidden void @_ZN7LIR_Op213set_conditionE13LIR_Condition(ptr noundef nonnull align 8 dereferenceable(124) %0, i32 noundef %1) #1 comdat align 2 {
  %3 = alloca ptr, align 8
  %4 = alloca i32, align 4
  store ptr %0, ptr %3, align 8
  store i32 %1, ptr %4, align 4
  %5 = load ptr, ptr %3, align 8
  %6 = load i32, ptr %4, align 4
  %7 = getelementptr inbounds %class.LIR_Op2, ptr %5, i32 0, i32 12
  store i32 %6, ptr %7, align 8
  ret void
}

; Function Attrs: mustprogress nounwind uwtable
define linkonce_odr hidden noundef i32 @_ZNK7LIR_Op29conditionEv(ptr noundef nonnull align 8 dereferenceable(124) %0) #1 comdat align 2 {
  %2 = alloca ptr, align 8
  store ptr %0, ptr %2, align 8
  %3 = load ptr, ptr %2, align 8
  %4 = getelementptr inbounds %class.LIR_Op2, ptr %3, i32 0, i32 12
  %5 = load i32, ptr %4, align 8
  ret i32 %5
}

; Function Attrs: mustprogress nounwind uwtable
define linkonce_odr hidden void @_ZN12LIR_OpBranch8set_condE13LIR_Condition(ptr noundef nonnull align 8 dereferenceable(160) %0, i32 noundef %1) #1 comdat align 2 {
  %3 = alloca ptr, align 8
  %4 = alloca i32, align 4
  store ptr %0, ptr %3, align 8
  store i32 %1, ptr %4, align 4
  %5 = load ptr, ptr %3, align 8
  %6 = load i32, ptr %4, align 4
  call void @_ZN7LIR_Op213set_conditionE13LIR_Condition(ptr noundef nonnull align 8 dereferenceable(124) %5, i32 noundef %6)
  ret void
}

; Function Attrs: mustprogress nounwind uwtable
define linkonce_odr hidden noundef i32 @_ZNK12LIR_OpBranch4condEv(ptr noundef nonnull align 8 dereferenceable(160) %0) #1 comdat align 2 {
  %2 = alloca ptr, align 8
  store ptr %0, ptr %2, align 8
  %3 = load ptr, ptr %2, align 8
  %4 = call noundef i32 @_ZNK7LIR_Op29conditionEv(ptr noundef nonnull align 8 dereferenceable(124) %3)
  ret i32 %4
}

; Function Attrs: mustprogress nounwind uwtable
define hidden void @_ZN12LIR_OpBranch11negate_condEv(ptr noundef nonnull align 8 dereferenceable(160) %0) #1 align 2 {
  %2 = alloca ptr, align 8
  store ptr %0, ptr %2, align 8
  %3 = load ptr, ptr %2, align 8
  %4 = call noundef i32 @_ZNK12LIR_OpBranch4condEv(ptr noundef nonnull align 8 dereferenceable(160) %3)
  switch i32 %4, label %11 [
    i32 0, label %5
    i32 1, label %6
    i32 2, label %7
    i32 3, label %8
    i32 4, label %9
    i32 5, label %10
  ]

5:                                                ; preds = %1
  call void @_ZN12LIR_OpBranch8set_condE13LIR_Condition(ptr noundef nonnull align 8 dereferenceable(160) %3, i32 noundef 1)
  br label %15

6:                                                ; preds = %1
  call void @_ZN12LIR_OpBranch8set_condE13LIR_Condition(ptr noundef nonnull align 8 dereferenceable(160) %3, i32 noundef 0)
  br label %15

7:                                                ; preds = %1
  call void @_ZN12LIR_OpBranch8set_condE13LIR_Condition(ptr noundef nonnull align 8 dereferenceable(160) %3, i32 noundef 4)
  br label %15

8:                                                ; preds = %1
  call void @_ZN12LIR_OpBranch8set_condE13LIR_Condition(ptr noundef nonnull align 8 dereferenceable(160) %3, i32 noundef 5)
  br label %15

9:                                                ; preds = %1
  call void @_ZN12LIR_OpBranch8set_condE13LIR_Condition(ptr noundef nonnull align 8 dereferenceable(160) %3, i32 noundef 2)
  br label %15

10:                                               ; preds = %1
  call void @_ZN12LIR_OpBranch8set_condE13LIR_Condition(ptr noundef nonnull align 8 dereferenceable(160) %3, i32 noundef 3)
  br label %15

11:                                               ; preds = %1
  br label %12

12:                                               ; preds = %11
  %13 = load ptr, ptr @g_assert_poison, align 8
  store i8 88, ptr %13, align 1
  call void @_Z28report_should_not_reach_herePKci(ptr noundef @.str, i32 noundef 282) #6
  unreachable

14:                                               ; No predecessors!
  br label %15

15:                                               ; preds = %14, %10, %9, %8, %7, %6, %5
  ret void
}