; Function Attrs: mustprogress nounwind uwtable
define hidden void @_ZN12LIR_OpBranch11negate_condEv(ptr nocapture noundef nonnull align 8 dereferenceable(160) %0) local_unnamed_addr #1 align 2 {
  %2 = getelementptr inbounds i8, ptr %0, i64 120
  %3 = load i32, ptr %2, align 8
  %4 = icmp ult i32 %3, 6
  br i1 %4, label %switch.lookup, label %5

5:                                                ; preds = %1
  %6 = load ptr, ptr @g_assert_poison, align 8
  store i8 88, ptr %6, align 1
  tail call void @_Z28report_should_not_reach_herePKci(ptr noundef nonnull @.str, i32 noundef 282) #12
  unreachable

switch.lookup:                                    ; preds = %1
  %7 = zext nneg i32 %3 to i64
  %switch.gep = getelementptr inbounds [6 x i32], ptr @switch.table._ZN12LIR_OpBranch11negate_condEv, i64 0, i64 %7
  %switch.load = load i32, ptr %switch.gep, align 4
  store i32 %switch.load, ptr %2, align 8
  ret void
}